(dp0
S'Sun'
p1
(dp2
I1
(dp3
(I6
I4
I10
tp4
I100
s(I4
I10
I9
tp5
I100
s(I6
I4
I5
tp6
I400
s(I5
I6
I4
tp7
I400
s(I10
I6
I4
tp8
I100
s(I6
I5
I9
tp9
I400
s(I9
I6
I4
tp10
I2500
s(I4
I6
I5
tp11
I400
s(I9
I6
I5
tp12
I2400
s(I6
I9
I4
tp13
I500
s(I6
I8
I10
tp14
I2900
s(I8
I6
I10
tp15
I400
s(I9
I4
I10
tp16
I100
s(I4
I5
I9
tp17
I400
s(I4
I9
I10
tp18
I100
s(I6
I9
I10
tp19
I100
s(I5
I6
I9
tp20
I400
s(I6
I9
I5
tp21
I400
s(I3
I12
I6
tp22
I400
s(I9
I5
I4
tp23
I400
s(I4
I6
I10
tp24
I100
s(I4
I6
I9
tp25
I500
s(I12
I6
I3
tp26
I2900
s(I10
I8
I6
tp27
I400
s(I4
I10
I6
tp28
I100
s(I12
I6
I5
tp29
I2500
s(I9
I5
I6
tp30
I1400
s(I6
I10
I9
tp31
I100
s(I12
I3
I6
tp32
I400
s(I6
I5
I4
tp33
I400
s(I9
I10
I6
tp34
I100
s(I6
I3
I12
tp35
I400
s(I5
I9
I4
tp36
I400
s(I9
I4
I6
tp37
I500
s(I6
I10
I8
tp38
I400
s(I5
I4
I6
tp39
I400
s(I10
I9
I4
tp40
I100
s(I8
I10
I6
tp41
I400
s(I4
I5
I6
tp42
I400
s(I5
I9
I6
tp43
I400
s(I9
I10
I4
tp44
I100
s(I9
I4
I5
tp45
I400
s(I4
I9
I6
tp46
I500
s(I10
I6
I9
tp47
I100
s(I12
I5
I8
tp48
I2500
s(I6
I4
I9
tp49
I500
s(I6
I10
I4
tp50
I100
s(I4
I9
I5
tp51
I400
s(I10
I6
I8
tp52
I400
s(I9
I6
I10
tp53
I100
s(I3
I6
I12
tp54
I400
s(I10
I9
I6
tp55
I100
s(I6
I12
I3
tp56
I400
s(I10
I4
I9
tp57
I100
s(I10
I4
I6
tp58
I100
s(I5
I4
I9
tp59
I400
ssI2
(dp60
(I8
I2
I3
tp61
I500
s(I2
I8
I3
tp62
I500
s(I7
I2
I3
tp63
I500
s(I2
I7
I3
tp64
I500
s(I8
I3
I2
tp65
I500
s(I2
I3
I7
tp66
I500
s(I4
I8
I10
tp67
I3300
s(I7
I8
I2
tp68
I500
s(I1
I4
I3
tp69
I2500
s(I7
I8
I3
tp70
I3500
s(I10
I4
I8
tp71
I3300
s(I8
I2
I7
tp72
I500
s(I8
I7
I2
tp73
I500
s(I10
I8
I4
tp74
I800
s(I8
I3
I7
tp75
I500
s(I3
I8
I2
tp76
I500
s(I7
I3
I8
tp77
I500
s(I6
I3
I10
tp78
I2500
s(I2
I7
I8
tp79
I500
s(I3
I7
I2
tp80
I500
s(I8
I10
I4
tp81
I800
s(I3
I2
I7
tp82
I500
s(I3
I8
I7
tp83
I500
s(I7
I2
I8
tp84
I500
s(I2
I3
I8
tp85
I500
s(I8
I7
I3
tp86
I2500
s(I3
I7
I8
tp87
I500
s(I2
I8
I7
tp88
I500
s(I8
I4
I10
tp89
I800
s(I4
I10
I8
tp90
I800
s(I3
I2
I8
tp91
I500
s(I7
I3
I2
tp92
I500
ssI3
(dp93
(I9
I5
I7
tp94
I100
s(I10
I7
I3
tp95
I100
s(I5
I7
I10
tp96
I100
s(I3
I10
I6
tp97
I300
s(I5
I6
I3
tp98
I300
s(I10
I6
I5
tp99
I300
s(I5
I7
I9
tp100
I100
s(I6
I3
I5
tp101
I300
s(I6
I5
I10
tp102
I300
s(I5
I3
I10
tp103
I400
s(I3
I7
I5
tp104
I600
s(I7
I3
I10
tp105
I100
s(I11
I3
I7
tp106
I400
s(I7
I5
I3
tp107
I600
s(I10
I6
I3
tp108
I300
s(I5
I3
I9
tp109
I100
s(I10
I5
I3
tp110
I2400
s(I3
I10
I5
tp111
I400
s(I9
I7
I5
tp112
I100
s(I3
I6
I10
tp113
I300
s(I7
I10
I5
tp114
I100
s(I7
I5
I10
tp115
I100
s(I10
I5
I6
tp116
I1300
s(I3
I1
I4
tp117
I2500
s(I5
I9
I3
tp118
I100
s(I7
I5
I9
tp119
I100
s(I10
I5
I7
tp120
I100
s(I5
I7
I3
tp121
I600
s(I10
I7
I5
tp122
I100
s(I5
I10
I6
tp123
I300
s(I3
I7
I11
tp124
I400
s(I9
I3
I7
tp125
I100
s(I7
I11
I3
tp126
I400
s(I3
I5
I6
tp127
I300
s(I6
I3
I10
tp128
I300
s(I3
I9
I5
tp129
I100
s(I7
I3
I9
tp130
I100
s(I3
I6
I5
tp131
I300
s(I9
I3
I5
tp132
I100
s(I7
I3
I5
tp133
I600
s(I6
I5
I3
tp134
I300
s(I3
I6
I2
tp135
I2500
s(I3
I10
I7
tp136
I100
s(I5
I6
I10
tp137
I300
s(I3
I9
I7
tp138
I100
s(I7
I10
I3
tp139
I100
s(I5
I9
I7
tp140
I100
s(I10
I3
I5
tp141
I400
s(I5
I10
I3
tp142
I1400
s(I9
I5
I3
tp143
I1100
s(I10
I3
I6
tp144
I300
s(I3
I5
I9
tp145
I100
s(I3
I7
I10
tp146
I100
s(I5
I3
I7
tp147
I600
s(I3
I7
I9
tp148
I100
s(I3
I5
I10
tp149
I400
s(I6
I10
I5
tp150
I300
s(I7
I3
I11
tp151
I400
s(I10
I3
I7
tp152
I100
s(I7
I9
I3
tp153
I100
s(I3
I5
I7
tp154
I3100
s(I9
I7
I3
tp155
I100
s(I3
I11
I7
tp156
I2900
s(I5
I3
I6
tp157
I300
s(I6
I10
I3
tp158
I300
s(I11
I7
I3
tp159
I400
s(I5
I10
I7
tp160
I100
s(I7
I9
I5
tp161
I100
ssI4
(dp162
(I6
I1
I8
tp163
I200
s(I10
I2
I8
tp164
I200
s(I1
I2
I8
tp165
I200
s(I6
I10
I1
tp166
I100
s(I1
I6
I10
tp167
I100
s(I1
I10
I6
tp168
I100
s(I2
I6
I8
tp169
I400
s(I7
I2
I3
tp170
I400
s(I8
I6
I1
tp171
I200
s(I2
I3
I7
tp172
I400
s(I1
I2
I10
tp173
I100
s(I10
I1
I6
tp174
I100
s(I3
I2
I12
tp175
I400
s(I8
I2
I10
tp176
I200
s(I2
I10
I8
tp177
I200
s(I10
I6
I2
tp178
I300
s(I1
I6
I8
tp179
I200
s(I6
I8
I10
tp180
I200
s(I8
I6
I2
tp181
I400
s(I10
I6
I1
tp182
I100
s(I8
I10
I6
tp183
I200
s(I6
I1
I2
tp184
I300
s(I2
I1
I8
tp185
I200
s(I6
I1
I10
tp186
I100
s(I10
I1
I2
tp187
I100
s(I2
I10
I1
tp188
I100
s(I1
I2
I6
tp189
I300
s(I10
I6
I8
tp190
I200
s(I2
I1
I10
tp191
I100
s(I2
I1
I6
tp192
I300
s(I6
I2
I1
tp193
I2300
s(I8
I10
I2
tp194
I200
s(I10
I8
I6
tp195
I200
s(I10
I2
I1
tp196
I100
s(I2
I3
I12
tp197
I400
s(I3
I7
I2
tp198
I400
s(I2
I10
I6
tp199
I300
s(I2
I8
I10
tp200
I200
s(I2
I6
I1
tp201
I300
s(I6
I8
I1
tp202
I1200
s(I8
I2
I6
tp203
I400
s(I3
I12
I2
tp204
I2900
s(I3
I2
I7
tp205
I2900
s(I10
I8
I2
tp206
I200
s(I3
I5
I2
tp207
I2500
s(I2
I7
I3
tp208
I400
s(I1
I8
I6
tp209
I200
s(I8
I1
I2
tp210
I200
s(I1
I10
I2
tp211
I100
s(I7
I3
I2
tp212
I400
s(I1
I6
I2
tp213
I300
s(I1
I8
I2
tp214
I200
s(I12
I3
I2
tp215
I400
s(I6
I8
I2
tp216
I400
s(I6
I2
I10
tp217
I2300
s(I2
I6
I10
tp218
I300
s(I2
I12
I3
tp219
I400
s(I8
I2
I1
tp220
I200
s(I6
I10
I8
tp221
I200
s(I8
I6
I10
tp222
I200
s(I5
I3
I6
tp223
I2500
s(I2
I8
I6
tp224
I400
s(I12
I2
I3
tp225
I400
s(I6
I2
I8
tp226
I400
s(I8
I1
I6
tp227
I200
s(I6
I10
I2
tp228
I300
s(I2
I8
I1
tp229
I200
s(I10
I2
I6
tp230
I300
ssI5
(dp231
(I6
I5
I12
tp232
I100
s(I12
I6
I11
tp233
I100
s(I5
I11
I12
tp234
I400
s(I12
I5
I1
tp235
I300
s(I11
I7
I1
tp236
I400
s(I1
I11
I12
tp237
I1300
s(I5
I6
I12
tp238
I100
s(I1
I12
I5
tp239
I300
s(I2
I1
I5
tp240
I100
s(I12
I1
I5
tp241
I300
s(I12
I11
I6
tp242
I100
s(I12
I1
I11
tp243
I300
s(I11
I1
I2
tp244
I8000
s(I1
I2
I11
tp245
I500
s(I5
I11
I1
tp246
I400
s(I11
I12
I5
tp247
I400
s(I2
I5
I1
tp248
I100
s(I1
I12
I11
tp249
I300
s(I11
I6
I5
tp250
I100
s(I11
I12
I6
tp251
I100
s(I5
I1
I12
tp252
I300
s(I11
I5
I12
tp253
I400
s(I2
I1
I11
tp254
I500
s(I12
I11
I5
tp255
I400
s(I1
I5
I12
tp256
I300
s(I1
I11
I7
tp257
I400
s(I5
I11
I6
tp258
I100
s(I7
I11
I1
tp259
I400
s(I11
I1
I5
tp260
I400
s(I6
I12
I11
tp261
I100
s(I11
I12
I1
tp262
I300
s(I2
I5
I11
tp263
I100
s(I1
I11
I5
tp264
I2400
s(I12
I5
I6
tp265
I100
s(I11
I2
I1
tp266
I500
s(I5
I2
I1
tp267
I100
s(I6
I11
I12
tp268
I1100
s(I5
I6
I11
tp269
I100
s(I12
I11
I1
tp270
I300
s(I12
I6
I5
tp271
I100
s(I5
I12
I1
tp272
I300
s(I2
I11
I5
tp273
I100
s(I1
I5
I11
tp274
I1400
s(I1
I11
I2
tp275
I500
s(I11
I5
I6
tp276
I100
s(I5
I11
I2
tp277
I100
s(I11
I5
I1
tp278
I400
s(I7
I1
I11
tp279
I400
s(I6
I11
I5
tp280
I100
s(I5
I12
I11
tp281
I400
s(I5
I2
I11
tp282
I100
s(I1
I2
I5
tp283
I100
s(I11
I6
I12
tp284
I100
s(I1
I7
I11
tp285
I400
s(I11
I2
I5
tp286
I100
s(I2
I11
I1
tp287
I500
s(I12
I5
I11
tp288
I400
s(I6
I12
I5
tp289
I100
s(I5
I12
I6
tp290
I100
s(I11
I1
I7
tp291
I2900
s(I5
I1
I11
tp292
I400
s(I5
I1
I2
tp293
I100
s(I11
I1
I12
tp294
I300
s(I1
I5
I2
tp295
I100
s(I11
I5
I2
tp296
I100
s(I6
I5
I11
tp297
I100
ssI6
(dp298
(I7
I12
I2
tp299
I2500
s(I7
I9
I4
tp300
I300
s(I9
I11
I4
tp301
I500
s(I7
I9
I11
tp302
I300
s(I11
I3
I4
tp303
I200
s(I7
I12
I4
tp304
I2900
s(I3
I11
I4
tp305
I200
s(I11
I4
I12
tp306
I2500
s(I11
I3
I9
tp307
I200
s(I7
I11
I4
tp308
I300
s(I4
I9
I3
tp309
I200
s(I9
I3
I11
tp310
I200
s(I4
I11
I9
tp311
I4500
s(I7
I5
I11
tp312
I400
s(I4
I11
I7
tp313
I300
s(I4
I3
I9
tp314
I200
s(I9
I7
I11
tp315
I300
s(I7
I4
I11
tp316
I300
s(I9
I4
I11
tp317
I500
s(I3
I9
I11
tp318
I200
s(I4
I7
I11
tp319
I300
s(I12
I4
I7
tp320
I400
s(I3
I4
I11
tp321
I200
s(I11
I4
I9
tp322
I500
s(I4
I12
I7
tp323
I400
s(I4
I3
I11
tp324
I200
s(I11
I9
I7
tp325
I300
s(I4
I7
I9
tp326
I300
s(I11
I5
I7
tp327
I400
s(I9
I11
I3
tp328
I200
s(I4
I11
I3
tp329
I200
s(I11
I7
I9
tp330
I300
s(I11
I9
I4
tp331
I1500
s(I9
I7
I4
tp332
I300
s(I4
I7
I12
tp333
I400
s(I7
I4
I12
tp334
I400
s(I11
I9
I3
tp335
I200
s(I9
I4
I7
tp336
I300
s(I3
I4
I9
tp337
I200
s(I9
I3
I4
tp338
I200
s(I11
I4
I7
tp339
I300
s(I4
I9
I11
tp340
I500
s(I5
I11
I7
tp341
I400
s(I7
I11
I9
tp342
I300
s(I3
I9
I4
tp343
I200
s(I11
I7
I5
tp344
I400
s(I7
I11
I5
tp345
I2900
s(I3
I11
I9
tp346
I200
s(I11
I7
I4
tp347
I300
s(I9
I11
I7
tp348
I300
s(I12
I7
I4
tp349
I400
s(I9
I4
I3
tp350
I200
s(I7
I4
I9
tp351
I300
s(I11
I4
I3
tp352
I200
s(I5
I7
I11
tp353
I400
s(I4
I9
I7
tp354
I300
ssI7
(dp355
(I8
I10
I11
tp356
I3300
s(I1
I8
I11
tp357
I100
s(I8
I5
I3
tp358
I400
s(I12
I10
I6
tp359
I100
s(I6
I12
I8
tp360
I100
s(I10
I6
I12
tp361
I100
s(I10
I12
I8
tp362
I100
s(I5
I8
I3
tp363
I400
s(I10
I1
I11
tp364
I100
s(I1
I11
I8
tp365
I100
s(I10
I11
I6
tp366
I300
s(I8
I11
I10
tp367
I2800
s(I11
I10
I6
tp368
I300
s(I11
I10
I8
tp369
I800
s(I11
I8
I1
tp370
I100
s(I10
I8
I11
tp371
I800
s(I10
I8
I12
tp372
I100
s(I5
I3
I8
tp373
I2900
s(I8
I6
I10
tp374
I400
s(I10
I8
I1
tp375
I100
s(I11
I1
I8
tp376
I100
s(I8
I6
I12
tp377
I100
s(I8
I10
I1
tp378
I100
s(I12
I6
I10
tp379
I100
s(I8
I12
I6
tp380
I100
s(I10
I11
I1
tp381
I100
s(I8
I10
I12
tp382
I100
s(I11
I6
I10
tp383
I300
s(I12
I10
I8
tp384
I100
s(I6
I10
I12
tp385
I100
s(I1
I10
I11
tp386
I100
s(I8
I11
I1
tp387
I100
s(I3
I5
I8
tp388
I400
s(I11
I8
I6
tp389
I300
s(I6
I10
I11
tp390
I300
s(I10
I8
I6
tp391
I400
s(I8
I3
I5
tp392
I400
s(I6
I8
I11
tp393
I300
s(I3
I8
I5
tp394
I400
s(I8
I1
I10
tp395
I100
s(I6
I10
I8
tp396
I400
s(I8
I6
I11
tp397
I300
s(I12
I8
I6
tp398
I100
s(I8
I1
I11
tp399
I100
s(I8
I12
I10
tp400
I100
s(I11
I8
I10
tp401
I2800
s(I8
I10
I6
tp402
I400
s(I6
I8
I12
tp403
I100
s(I1
I10
I8
tp404
I100
s(I10
I6
I11
tp405
I300
s(I3
I11
I2
tp406
I2500
s(I6
I8
I10
tp407
I400
s(I10
I12
I6
tp408
I100
s(I6
I12
I10
tp409
I100
s(I8
I11
I6
tp410
I300
s(I11
I10
I1
tp411
I100
s(I6
I11
I8
tp412
I300
s(I6
I2
I10
tp413
I2500
s(I10
I11
I8
tp414
I800
s(I12
I8
I10
tp415
I1100
s(I11
I1
I10
tp416
I100
s(I10
I6
I8
tp417
I400
s(I10
I1
I8
tp418
I100
s(I6
I11
I10
tp419
I300
s(I12
I6
I8
tp420
I100
s(I1
I8
I10
tp421
I100
s(I11
I6
I8
tp422
I300
s(I1
I11
I10
tp423
I100
ssI8
(dp424
(I3
I4
I6
tp425
I300
s(I2
I5
I10
tp426
I400
s(I11
I6
I9
tp427
I200
s(I9
I3
I6
tp428
I300
s(I6
I3
I4
tp429
I300
s(I11
I9
I6
tp430
I200
s(I4
I6
I9
tp431
I100
s(I3
I6
I11
tp432
I2400
s(I9
I11
I3
tp433
I200
s(I11
I6
I3
tp434
I400
s(I11
I6
I4
tp435
I200
s(I10
I5
I2
tp436
I400
s(I6
I4
I9
tp437
I100
s(I11
I3
I9
tp438
I200
s(I4
I6
I11
tp439
I200
s(I11
I3
I6
tp440
I400
s(I6
I9
I4
tp441
I100
s(I9
I3
I11
tp442
I200
s(I3
I6
I9
tp443
I300
s(I3
I9
I11
tp444
I200
s(I1
I5
I12
tp445
I2500
s(I4
I11
I6
tp446
I200
s(I6
I11
I3
tp447
I400
s(I12
I10
I5
tp448
I400
s(I6
I9
I11
tp449
I200
s(I5
I12
I10
tp450
I2900
s(I3
I4
I9
tp451
I100
s(I6
I4
I3
tp452
I300
s(I9
I3
I4
tp453
I100
s(I6
I3
I9
tp454
I300
s(I9
I11
I6
tp455
I200
s(I4
I9
I3
tp456
I100
s(I9
I4
I3
tp457
I100
s(I3
I6
I4
tp458
I2300
s(I4
I6
I3
tp459
I300
s(I9
I6
I3
tp460
I300
s(I10
I12
I5
tp461
I400
s(I6
I3
I11
tp462
I1400
s(I2
I10
I5
tp463
I400
s(I4
I3
I11
tp464
I200
s(I6
I11
I4
tp465
I200
s(I4
I11
I3
tp466
I200
s(I5
I1
I12
tp467
I2500
s(I9
I4
I6
tp468
I100
s(I5
I10
I2
tp469
I400
s(I11
I9
I3
tp470
I200
s(I6
I9
I3
tp471
I300
s(I11
I4
I6
tp472
I200
s(I3
I9
I6
tp473
I300
s(I3
I4
I11
tp474
I200
s(I10
I2
I5
tp475
I400
s(I12
I5
I10
tp476
I400
s(I11
I4
I3
tp477
I200
s(I3
I9
I4
tp478
I100
s(I9
I6
I4
tp479
I100
s(I11
I3
I4
tp480
I200
s(I3
I11
I4
tp481
I200
s(I3
I11
I9
tp482
I200
s(I6
I11
I9
tp483
I200
s(I5
I10
I12
tp484
I400
s(I9
I6
I11
tp485
I200
s(I10
I5
I12
tp486
I400
s(I4
I3
I6
tp487
I300
s(I4
I9
I6
tp488
I100
s(I5
I2
I10
tp489
I2900
s(I3
I11
I6
tp490
I400
s(I6
I4
I11
tp491
I200
s(I4
I3
I9
tp492
I100
ssI9
(dp493
(I6
I1
I8
tp494
I300
s(I1
I4
I7
tp495
I400
s(I3
I6
I8
tp496
I300
s(I4
I7
I1
tp497
I2900
s(I6
I8
I9
tp498
I100
s(I4
I7
I6
tp499
I5400
s(I8
I1
I10
tp500
I100
s(I9
I10
I8
tp501
I100
s(I3
I1
I8
tp502
I400
s(I7
I6
I4
tp503
I400
s(I1
I10
I3
tp504
I100
s(I6
I4
I7
tp505
I400
s(I8
I6
I3
tp506
I1300
s(I3
I8
I1
tp507
I400
s(I1
I6
I8
tp508
I300
s(I6
I8
I10
tp509
I100
s(I3
I1
I6
tp510
I300
s(I8
I10
I6
tp511
I100
s(I10
I8
I1
tp512
I100
s(I9
I8
I6
tp513
I100
s(I8
I3
I1
tp514
I1400
s(I6
I9
I10
tp515
I100
s(I10
I3
I1
tp516
I100
s(I8
I10
I3
tp517
I100
s(I8
I3
I6
tp518
I300
s(I3
I1
I10
tp519
I100
s(I7
I4
I1
tp520
I400
s(I6
I3
I8
tp521
I300
s(I8
I9
I6
tp522
I100
s(I10
I1
I3
tp523
I100
s(I6
I9
I8
tp524
I100
s(I9
I6
I10
tp525
I100
s(I1
I10
I8
tp526
I100
s(I7
I1
I4
tp527
I400
s(I10
I9
I8
tp528
I100
s(I8
I3
I10
tp529
I1100
s(I10
I8
I6
tp530
I1100
s(I3
I10
I8
tp531
I100
s(I8
I9
I10
tp532
I100
s(I1
I3
I8
tp533
I400
s(I8
I6
I1
tp534
I300
s(I8
I6
I9
tp535
I100
s(I4
I1
I7
tp536
I400
s(I1
I8
I3
tp537
I400
s(I10
I9
I6
tp538
I100
s(I1
I7
I4
tp539
I400
s(I6
I10
I9
tp540
I100
s(I6
I1
I3
tp541
I300
s(I9
I8
I10
tp542
I100
s(I6
I10
I8
tp543
I100
s(I7
I4
I6
tp544
I400
s(I10
I8
I9
tp545
I100
s(I10
I1
I8
tp546
I100
s(I8
I6
I10
tp547
I100
s(I1
I8
I10
tp548
I100
s(I1
I8
I6
tp549
I300
s(I4
I2
I7
tp550
I2500
s(I10
I8
I3
tp551
I100
s(I3
I6
I1
tp552
I300
s(I10
I3
I8
tp553
I100
s(I9
I6
I8
tp554
I100
s(I8
I1
I3
tp555
I400
s(I8
I1
I6
tp556
I300
s(I6
I7
I4
tp557
I400
s(I1
I6
I3
tp558
I300
s(I10
I6
I9
tp559
I100
s(I6
I8
I1
tp560
I300
s(I1
I3
I10
tp561
I100
s(I6
I3
I1
tp562
I300
s(I8
I10
I9
tp563
I100
s(I10
I6
I8
tp564
I100
s(I9
I10
I6
tp565
I100
s(I6
I8
I3
tp566
I300
s(I1
I3
I6
tp567
I300
s(I3
I8
I6
tp568
I1300
s(I3
I8
I10
tp569
I100
s(I4
I6
I7
tp570
I400
s(I8
I10
I1
tp571
I100
s(I3
I10
I1
tp572
I100
ssI10
(dp573
(I9
I7
I1
tp574
I300
s(I7
I5
I6
tp575
I200
s(I5
I7
I9
tp576
I1500
s(I3
I6
I9
tp577
I2900
s(I6
I5
I9
tp578
I200
s(I7
I1
I9
tp579
I300
s(I9
I6
I5
tp580
I200
s(I1
I7
I5
tp581
I300
s(I6
I7
I3
tp582
I400
s(I9
I7
I5
tp583
I1500
s(I5
I1
I7
tp584
I1300
s(I5
I7
I6
tp585
I200
s(I6
I3
I7
tp586
I400
s(I3
I7
I6
tp587
I400
s(I7
I6
I9
tp588
I200
s(I7
I6
I5
tp589
I200
s(I5
I6
I9
tp590
I200
s(I7
I1
I5
tp591
I300
s(I6
I9
I5
tp592
I200
s(I3
I6
I7
tp593
I400
s(I5
I9
I6
tp594
I200
s(I1
I9
I5
tp595
I300
s(I7
I9
I6
tp596
I200
s(I9
I5
I7
tp597
I500
s(I9
I3
I6
tp598
I400
s(I9
I6
I3
tp599
I400
s(I5
I7
I1
tp600
I300
s(I6
I5
I7
tp601
I200
s(I8
I6
I9
tp602
I5000
s(I9
I5
I6
tp603
I200
s(I6
I7
I5
tp604
I200
s(I1
I9
I7
tp605
I300
s(I9
I5
I1
tp606
I300
s(I5
I6
I7
tp607
I200
s(I9
I1
I5
tp608
I300
s(I6
I3
I9
tp609
I400
s(I5
I9
I7
tp610
I500
s(I3
I9
I6
tp611
I400
s(I7
I5
I9
tp612
I500
s(I9
I1
I7
tp613
I300
s(I7
I3
I6
tp614
I2900
s(I7
I9
I1
tp615
I300
s(I6
I7
I9
tp616
I200
s(I5
I1
I9
tp617
I300
s(I5
I9
I1
tp618
I300
s(I1
I5
I7
tp619
I300
s(I7
I9
I5
tp620
I2500
s(I9
I6
I7
tp621
I200
s(I6
I9
I7
tp622
I200
s(I1
I7
I9
tp623
I300
s(I7
I6
I3
tp624
I400
s(I1
I5
I9
tp625
I300
s(I6
I9
I3
tp626
I400
s(I7
I5
I1
tp627
I300
s(I9
I7
I6
tp628
I200
ssI11
(dp629
(I10
I4
I3
tp630
I100
s(I7
I9
I4
tp631
I100
s(I3
I1
I10
tp632
I100
s(I5
I2
I7
tp633
I400
s(I7
I1
I3
tp634
I300
s(I2
I7
I4
tp635
I1100
s(I1
I10
I3
tp636
I100
s(I4
I10
I7
tp637
I100
s(I3
I7
I4
tp638
I1300
s(I10
I4
I7
tp639
I100
s(I4
I7
I10
tp640
I100
s(I3
I1
I4
tp641
I200
s(I7
I4
I1
tp642
I200
s(I1
I10
I7
tp643
I100
s(I4
I10
I3
tp644
I100
s(I7
I4
I3
tp645
I300
s(I7
I3
I10
tp646
I200
s(I4
I1
I7
tp647
I200
s(I1
I7
I4
tp648
I200
s(I7
I3
I4
tp649
I300
s(I5
I10
I2
tp650
I400
s(I2
I5
I7
tp651
I400
s(I1
I3
I7
tp652
I300
s(I4
I1
I3
tp653
I200
s(I10
I7
I4
tp654
I100
s(I1
I3
I10
tp655
I100
s(I7
I5
I2
tp656
I400
s(I9
I7
I2
tp657
I100
s(I3
I7
I10
tp658
I200
s(I3
I10
I1
tp659
I100
s(I3
I4
I7
tp660
I300
s(I3
I10
I7
tp661
I200
s(I2
I9
I4
tp662
I100
s(I4
I9
I2
tp663
I100
s(I3
I4
I1
tp664
I200
s(I1
I7
I3
tp665
I300
s(I9
I7
I4
tp666
I100
s(I9
I2
I4
tp667
I100
s(I2
I7
I5
tp668
I2900
s(I4
I3
I10
tp669
I100
s(I2
I7
I9
tp670
I100
s(I10
I3
I4
tp671
I100
s(I7
I10
I3
tp672
I200
s(I7
I1
I10
tp673
I100
s(I4
I2
I7
tp674
I100
s(I7
I10
I1
tp675
I100
s(I7
I2
I4
tp676
I100
s(I4
I7
I3
tp677
I300
s(I7
I4
I10
tp678
I100
s(I1
I4
I7
tp679
I200
s(I2
I5
I10
tp680
I400
s(I4
I7
I1
tp681
I200
s(I12
I5
I2
tp682
I2500
s(I10
I1
I7
tp683
I100
s(I3
I1
I7
tp684
I2300
s(I1
I4
I3
tp685
I200
s(I4
I2
I9
tp686
I100
s(I5
I2
I12
tp687
I2500
s(I3
I7
I1
tp688
I1300
s(I10
I1
I3
tp689
I100
s(I7
I4
I2
tp690
I100
s(I7
I1
I4
tp691
I200
s(I4
I7
I9
tp692
I100
s(I5
I2
I10
tp693
I400
s(I10
I7
I1
tp694
I100
s(I10
I2
I5
tp695
I400
s(I2
I4
I9
tp696
I100
s(I7
I3
I1
tp697
I300
s(I10
I7
I3
tp698
I200
s(I1
I3
I4
tp699
I200
s(I4
I3
I7
tp700
I300
s(I4
I9
I7
tp701
I100
s(I2
I9
I7
tp702
I100
s(I10
I5
I2
tp703
I2900
s(I3
I10
I4
tp704
I100
s(I4
I3
I1
tp705
I200
s(I5
I7
I2
tp706
I400
s(I7
I10
I4
tp707
I100
s(I9
I2
I7
tp708
I100
s(I2
I4
I7
tp709
I100
s(I2
I10
I5
tp710
I400
s(I9
I4
I2
tp711
I100
s(I3
I4
I10
tp712
I100
s(I7
I9
I2
tp713
I100
s(I7
I2
I9
tp714
I100
s(I10
I3
I7
tp715
I200
s(I1
I7
I10
tp716
I100
s(I4
I7
I2
tp717
I100
s(I10
I3
I1
tp718
I100
s(I7
I4
I9
tp719
I100
s(I9
I4
I7
tp720
I100
s(I7
I2
I5
tp721
I400
sssS'Sat'
p722
(dp723
I1
(dp724
(I7
I9
I4
tp725
I100
s(I6
I8
I9
tp726
I400
s(I7
I12
I4
tp727
I100
s(I4
I2
I12
tp728
I400
s(I4
I12
I7
tp729
I100
s(I5
I4
I12
tp730
I100
s(I9
I4
I7
tp731
I100
s(I9
I6
I5
tp732
I2900
s(I4
I12
I5
tp733
I100
s(I12
I2
I10
tp734
I200
s(I12
I2
I4
tp735
I1400
s(I4
I9
I12
tp736
I100
s(I8
I9
I6
tp737
I400
s(I12
I4
I6
tp738
I100
s(I7
I9
I12
tp739
I100
s(I10
I12
I2
tp740
I200
s(I10
I12
I4
tp741
I200
s(I12
I9
I4
tp742
I100
s(I4
I7
I12
tp743
I100
s(I12
I4
I2
tp744
I400
s(I6
I4
I12
tp745
I100
s(I10
I2
I4
tp746
I200
s(I12
I9
I7
tp747
I100
s(I12
I7
I4
tp748
I1100
s(I2
I4
I10
tp749
I200
s(I2
I12
I5
tp750
I100
s(I2
I4
I12
tp751
I1400
s(I12
I4
I10
tp752
I200
s(I9
I12
I7
tp753
I100
s(I9
I4
I12
tp754
I100
s(I10
I2
I12
tp755
I200
s(I6
I9
I5
tp756
I2900
s(I6
I2
I4
tp757
I100
s(I4
I12
I9
tp758
I100
s(I6
I4
I2
tp759
I100
s(I4
I5
I2
tp760
I100
s(I2
I4
I6
tp761
I100
s(I4
I2
I5
tp762
I100
s(I6
I5
I9
tp763
I400
s(I4
I10
I12
tp764
I200
s(I9
I7
I12
tp765
I100
s(I6
I2
I12
tp766
I100
s(I12
I5
I4
tp767
I100
s(I5
I12
I2
tp768
I100
s(I5
I2
I4
tp769
I100
s(I2
I10
I4
tp770
I200
s(I12
I10
I4
tp771
I200
s(I5
I2
I12
tp772
I100
s(I4
I5
I12
tp773
I100
s(I10
I4
I2
tp774
I200
s(I2
I10
I12
tp775
I200
s(I7
I4
I12
tp776
I100
s(I9
I6
I4
tp777
I2500
s(I5
I12
I4
tp778
I100
s(I12
I5
I2
tp779
I100
s(I4
I12
I6
tp780
I100
s(I12
I10
I2
tp781
I200
s(I9
I8
I6
tp782
I400
s(I12
I7
I9
tp783
I100
s(I4
I10
I2
tp784
I200
s(I12
I2
I5
tp785
I100
s(I2
I5
I12
tp786
I100
s(I7
I12
I9
tp787
I100
s(I12
I4
I7
tp788
I100
s(I4
I12
I2
tp789
I400
s(I2
I6
I4
tp790
I100
s(I5
I9
I6
tp791
I400
s(I4
I7
I9
tp792
I100
s(I12
I4
I5
tp793
I100
s(I8
I6
I9
tp794
I400
s(I10
I4
I12
tp795
I200
s(I6
I12
I4
tp796
I100
s(I4
I2
I10
tp797
I200
s(I2
I5
I4
tp798
I100
s(I9
I6
I8
tp799
I2900
s(I4
I6
I2
tp800
I100
s(I4
I12
I10
tp801
I200
s(I2
I6
I12
tp802
I100
s(I12
I2
I6
tp803
I100
s(I4
I9
I7
tp804
I100
s(I6
I12
I2
tp805
I100
s(I2
I12
I4
tp806
I2400
s(I2
I12
I6
tp807
I100
s(I12
I4
I9
tp808
I100
s(I9
I12
I4
tp809
I100
s(I4
I6
I12
tp810
I100
s(I2
I12
I10
tp811
I200
s(I5
I6
I9
tp812
I400
s(I5
I4
I2
tp813
I100
s(I2
I4
I5
tp814
I100
s(I6
I9
I8
tp815
I400
s(I12
I6
I2
tp816
I100
s(I9
I5
I6
tp817
I400
s(I12
I6
I4
tp818
I100
s(I9
I7
I4
tp819
I100
s(I4
I2
I6
tp820
I100
s(I7
I4
I9
tp821
I100
ssI2
(dp822
(I5
I6
I2
tp823
I2500
s(I9
I7
I1
tp824
I100
s(I2
I9
I6
tp825
I400
s(I2
I6
I9
tp826
I400
s(I2
I1
I7
tp827
I100
s(I2
I9
I7
tp828
I500
s(I1
I5
I2
tp829
I800
s(I7
I1
I2
tp830
I100
s(I6
I2
I7
tp831
I2400
s(I9
I2
I7
tp832
I500
s(I6
I7
I2
tp833
I400
s(I5
I2
I1
tp834
I3300
s(I9
I2
I1
tp835
I100
s(I7
I2
I1
tp836
I100
s(I1
I7
I2
tp837
I100
s(I2
I6
I7
tp838
I400
s(I2
I7
I6
tp839
I400
s(I9
I6
I7
tp840
I400
s(I9
I1
I7
tp841
I100
s(I9
I1
I2
tp842
I100
s(I9
I7
I6
tp843
I400
s(I2
I1
I9
tp844
I100
s(I1
I9
I2
tp845
I100
s(I9
I6
I2
tp846
I400
s(I2
I9
I1
tp847
I100
s(I7
I9
I1
tp848
I100
s(I5
I1
I2
tp849
I3300
s(I6
I5
I2
tp850
I2500
s(I7
I6
I9
tp851
I400
s(I2
I7
I9
tp852
I500
s(I1
I9
I7
tp853
I100
s(I2
I5
I1
tp854
I800
s(I6
I7
I9
tp855
I400
s(I7
I9
I2
tp856
I500
s(I2
I1
I5
tp857
I800
s(I1
I2
I9
tp858
I100
s(I1
I2
I5
tp859
I800
s(I7
I1
I9
tp860
I100
s(I7
I2
I9
tp861
I500
s(I9
I2
I6
tp862
I400
s(I7
I6
I2
tp863
I400
s(I1
I2
I7
tp864
I100
s(I2
I7
I1
tp865
I100
s(I1
I7
I9
tp866
I1100
s(I6
I9
I2
tp867
I400
s(I6
I2
I9
tp868
I2400
s(I7
I9
I6
tp869
I400
s(I9
I7
I2
tp870
I500
s(I7
I2
I6
tp871
I400
s(I6
I9
I7
tp872
I400
ssI3
(dp873
(I8
I5
I3
tp874
I900
s(I1
I5
I3
tp875
I400
s(I5
I6
I3
tp876
I500
s(I5
I8
I3
tp877
I8900
s(I3
I6
I8
tp878
I500
s(I8
I6
I3
tp879
I500
s(I6
I8
I3
tp880
I500
s(I3
I5
I8
tp881
I900
s(I3
I1
I5
tp882
I400
s(I6
I5
I8
tp883
I500
s(I5
I6
I8
tp884
I500
s(I8
I3
I6
tp885
I500
s(I6
I3
I8
tp886
I500
s(I5
I3
I8
tp887
I1900
s(I5
I1
I3
tp888
I400
s(I5
I3
I6
tp889
I500
s(I6
I3
I5
tp890
I500
s(I3
I5
I1
tp891
I400
s(I8
I3
I5
tp892
I900
s(I3
I6
I5
tp893
I500
s(I3
I8
I5
tp894
I900
s(I6
I5
I3
tp895
I500
s(I3
I8
I6
tp896
I500
s(I5
I3
I1
tp897
I2900
s(I8
I5
I6
tp898
I500
s(I8
I5
I7
tp899
I2500
s(I5
I8
I6
tp900
I500
s(I6
I8
I5
tp901
I500
s(I1
I3
I5
tp902
I400
s(I8
I6
I5
tp903
I500
s(I3
I5
I6
tp904
I1500
ssI4
(dp905
(I8
I2
I3
tp906
I200
s(I1
I2
I8
tp907
I500
s(I2
I7
I4
tp908
I200
s(I4
I1
I8
tp909
I100
s(I3
I4
I7
tp910
I200
s(I1
I8
I4
tp911
I100
s(I2
I8
I3
tp912
I200
s(I7
I2
I3
tp913
I200
s(I4
I3
I2
tp914
I400
s(I2
I3
I7
tp915
I200
s(I4
I8
I1
tp916
I100
s(I8
I3
I2
tp917
I200
s(I8
I2
I4
tp918
I300
s(I1
I4
I2
tp919
I500
s(I3
I7
I4
tp920
I200
s(I2
I4
I1
tp921
I3000
s(I3
I4
I2
tp922
I400
s(I8
I1
I4
tp923
I100
s(I3
I8
I4
tp924
I200
s(I2
I4
I3
tp925
I400
s(I4
I1
I2
tp926
I500
s(I2
I1
I8
tp927
I3000
s(I4
I7
I2
tp928
I200
s(I8
I4
I3
tp929
I200
s(I3
I8
I2
tp930
I200
s(I7
I4
I2
tp931
I200
s(I8
I4
I2
tp932
I300
s(I8
I3
I4
tp933
I200
s(I7
I4
I3
tp934
I200
s(I8
I4
I1
tp935
I100
s(I4
I2
I7
tp936
I200
s(I1
I8
I2
tp937
I500
s(I3
I7
I2
tp938
I200
s(I2
I4
I7
tp939
I200
s(I3
I4
I8
tp940
I200
s(I2
I1
I4
tp941
I1500
s(I3
I2
I8
tp942
I200
s(I4
I8
I3
tp943
I200
s(I4
I8
I2
tp944
I2800
s(I4
I2
I5
tp945
I2500
s(I4
I3
I8
tp946
I200
s(I3
I2
I7
tp947
I200
s(I1
I2
I4
tp948
I500
s(I4
I7
I3
tp949
I200
s(I4
I2
I8
tp950
I300
s(I2
I7
I3
tp951
I200
s(I3
I2
I4
tp952
I3400
s(I2
I3
I8
tp953
I200
s(I8
I1
I2
tp954
I500
s(I7
I3
I4
tp955
I200
s(I2
I4
I8
tp956
I300
s(I1
I4
I8
tp957
I100
s(I4
I2
I1
tp958
I500
s(I8
I2
I1
tp959
I500
s(I2
I8
I4
tp960
I300
s(I7
I2
I4
tp961
I200
s(I4
I3
I7
tp962
I200
s(I2
I3
I4
tp963
I1400
s(I7
I3
I2
tp964
I200
s(I4
I2
I3
tp965
I400
s(I2
I8
I1
tp966
I500
ssI5
(dp967
(I12
I10
I7
tp968
I2900
s(I2
I7
I1
tp969
I500
s(I8
I12
I7
tp970
I400
s(I6
I7
I1
tp971
I300
s(I1
I10
I2
tp972
I200
s(I7
I1
I2
tp973
I500
s(I12
I7
I10
tp974
I400
s(I7
I12
I8
tp975
I400
s(I7
I10
I8
tp976
I2500
s(I10
I7
I1
tp977
I200
s(I7
I10
I2
tp978
I200
s(I10
I1
I7
tp979
I1200
s(I7
I2
I1
tp980
I500
s(I2
I1
I10
tp981
I200
s(I12
I7
I8
tp982
I400
s(I1
I7
I2
tp983
I500
s(I2
I6
I7
tp984
I300
s(I2
I7
I6
tp985
I300
s(I10
I7
I12
tp986
I400
s(I6
I1
I2
tp987
I300
s(I7
I1
I6
tp988
I300
s(I10
I1
I2
tp989
I200
s(I2
I10
I1
tp990
I200
s(I1
I10
I7
tp991
I1200
s(I7
I12
I10
tp992
I400
s(I2
I1
I6
tp993
I300
s(I6
I2
I1
tp994
I300
s(I1
I7
I6
tp995
I300
s(I2
I10
I7
tp996
I200
s(I10
I2
I1
tp997
I200
s(I2
I1
I7
tp998
I500
s(I2
I6
I1
tp999
I300
s(I6
I1
I7
tp1000
I300
s(I12
I8
I7
tp1001
I400
s(I1
I6
I7
tp1002
I3300
s(I2
I7
I10
tp1003
I200
s(I10
I12
I7
tp1004
I400
s(I10
I2
I7
tp1005
I200
s(I8
I7
I12
tp1006
I2900
s(I1
I2
I6
tp1007
I300
s(I10
I7
I2
tp1008
I200
s(I1
I2
I10
tp1009
I200
s(I7
I10
I1
tp1010
I200
s(I1
I6
I2
tp1011
I300
s(I12
I7
I6
tp1012
I2500
s(I7
I2
I6
tp1013
I300
s(I7
I6
I2
tp1014
I300
s(I1
I2
I7
tp1015
I500
s(I6
I2
I7
tp1016
I300
s(I7
I2
I10
tp1017
I200
s(I1
I7
I10
tp1018
I200
s(I7
I10
I12
tp1019
I400
s(I6
I7
I2
tp1020
I300
s(I7
I1
I10
tp1021
I200
s(I7
I8
I12
tp1022
I400
s(I7
I6
I1
tp1023
I300
ssI6
(dp1024
(I7
I1
I3
tp1025
I2500
s(I9
I6
I5
tp1026
I100
s(I6
I5
I9
tp1027
I100
s(I3
I7
I6
tp1028
I400
s(I2
I6
I5
tp1029
I100
s(I4
I2
I10
tp1030
I100
s(I3
I1
I2
tp1031
I400
s(I6
I11
I2
tp1032
I100
s(I6
I11
I4
tp1033
I100
s(I9
I4
I6
tp1034
I200
s(I10
I2
I6
tp1035
I100
s(I9
I5
I4
tp1036
I100
s(I7
I3
I6
tp1037
I400
s(I10
I2
I4
tp1038
I100
s(I4
I6
I2
tp1039
I400
s(I9
I4
I2
tp1040
I100
s(I2
I6
I11
tp1041
I100
s(I2
I4
I10
tp1042
I100
s(I4
I9
I6
tp1043
I200
s(I5
I6
I2
tp1044
I100
s(I2
I9
I6
tp1045
I100
s(I6
I4
I10
tp1046
I100
s(I2
I6
I9
tp1047
I100
s(I4
I6
I9
tp1048
I200
s(I5
I6
I4
tp1049
I200
s(I2
I9
I4
tp1050
I100
s(I4
I9
I2
tp1051
I100
s(I4
I6
I5
tp1052
I200
s(I4
I6
I11
tp1053
I100
s(I6
I3
I7
tp1054
I2900
s(I6
I9
I5
tp1055
I100
s(I11
I2
I6
tp1056
I100
s(I6
I2
I4
tp1057
I2400
s(I9
I2
I4
tp1058
I100
s(I11
I2
I4
tp1059
I100
s(I6
I4
I2
tp1060
I2400
s(I9
I2
I6
tp1061
I100
s(I11
I4
I2
tp1062
I100
s(I4
I5
I2
tp1063
I100
s(I2
I10
I6
tp1064
I100
s(I2
I4
I6
tp1065
I400
s(I4
I9
I5
tp1066
I100
s(I5
I9
I4
tp1067
I100
s(I4
I2
I5
tp1068
I100
s(I2
I10
I4
tp1069
I100
s(I4
I5
I6
tp1070
I200
s(I2
I1
I3
tp1071
I400
s(I5
I9
I6
tp1072
I100
s(I1
I7
I11
tp1073
I2500
s(I11
I6
I2
tp1074
I100
s(I6
I2
I10
tp1075
I100
s(I6
I10
I2
tp1076
I100
s(I5
I2
I4
tp1077
I100
s(I5
I4
I9
tp1078
I100
s(I5
I2
I6
tp1079
I100
s(I10
I4
I2
tp1080
I100
s(I9
I6
I4
tp1081
I200
s(I11
I6
I4
tp1082
I100
s(I6
I7
I3
tp1083
I400
s(I4
I10
I6
tp1084
I100
s(I10
I4
I6
tp1085
I100
s(I4
I2
I9
tp1086
I100
s(I4
I2
I11
tp1087
I100
s(I2
I6
I4
tp1088
I400
s(I6
I5
I4
tp1089
I1200
s(I4
I10
I2
tp1090
I100
s(I9
I6
I2
tp1091
I100
s(I2
I11
I4
tp1092
I100
s(I6
I5
I2
tp1093
I100
s(I3
I2
I1
tp1094
I400
s(I1
I2
I3
tp1095
I400
s(I2
I11
I6
tp1096
I100
s(I2
I5
I6
tp1097
I100
s(I2
I4
I9
tp1098
I100
s(I2
I5
I4
tp1099
I100
s(I9
I4
I5
tp1100
I100
s(I6
I4
I9
tp1101
I200
s(I6
I10
I4
tp1102
I100
s(I2
I4
I11
tp1103
I100
s(I7
I6
I3
tp1104
I400
s(I6
I9
I2
tp1105
I100
s(I6
I4
I11
tp1106
I100
s(I2
I6
I10
tp1107
I100
s(I1
I3
I2
tp1108
I2900
s(I6
I4
I5
tp1109
I200
s(I10
I6
I4
tp1110
I100
s(I6
I9
I4
tp1111
I200
s(I2
I3
I1
tp1112
I400
s(I4
I6
I10
tp1113
I100
s(I6
I2
I5
tp1114
I100
s(I4
I11
I6
tp1115
I100
s(I10
I6
I2
tp1116
I100
s(I5
I6
I9
tp1117
I100
s(I5
I4
I2
tp1118
I100
s(I2
I4
I5
tp1119
I100
s(I3
I6
I7
tp1120
I400
s(I4
I11
I2
tp1121
I100
s(I9
I5
I6
tp1122
I100
s(I5
I4
I6
tp1123
I200
s(I11
I4
I6
tp1124
I100
s(I6
I2
I11
tp1125
I100
s(I4
I2
I6
tp1126
I400
s(I4
I5
I9
tp1127
I100
s(I6
I2
I9
tp1128
I100
ssI7
(dp1129
(I11
I1
I5
tp1130
I400
s(I3
I11
I1
tp1131
I100
s(I1
I5
I3
tp1132
I200
s(I11
I7
I1
tp1133
I300
s(I7
I1
I3
tp1134
I100
s(I5
I11
I3
tp1135
I100
s(I1
I11
I3
tp1136
I100
s(I12
I2
I9
tp1137
I2500
s(I3
I7
I5
tp1138
I100
s(I7
I5
I3
tp1139
I100
s(I2
I7
I4
tp1140
I2900
s(I5
I11
I1
tp1141
I400
s(I5
I7
I1
tp1142
I400
s(I3
I1
I7
tp1143
I100
s(I12
I2
I11
tp1144
I2500
s(I1
I7
I3
tp1145
I100
s(I11
I3
I5
tp1146
I100
s(I5
I1
I7
tp1147
I400
s(I1
I3
I5
tp1148
I200
s(I11
I5
I7
tp1149
I300
s(I5
I11
I7
tp1150
I300
s(I7
I5
I11
tp1151
I300
s(I3
I1
I5
tp1152
I200
s(I3
I11
I5
tp1153
I100
s(I1
I11
I7
tp1154
I300
s(I11
I1
I7
tp1155
I300
s(I3
I7
I1
tp1156
I100
s(I4
I2
I11
tp1157
I400
s(I3
I5
I1
tp1158
I200
s(I5
I7
I3
tp1159
I1100
s(I7
I4
I2
tp1160
I400
s(I11
I2
I4
tp1161
I400
s(I5
I1
I3
tp1162
I200
s(I3
I5
I11
tp1163
I1100
s(I1
I7
I5
tp1164
I400
s(I5
I3
I1
tp1165
I200
s(I2
I11
I4
tp1166
I2900
s(I2
I4
I7
tp1167
I400
s(I1
I3
I11
tp1168
I100
s(I4
I11
I2
tp1169
I400
s(I7
I3
I5
tp1170
I100
s(I1
I5
I11
tp1171
I400
s(I1
I7
I11
tp1172
I300
s(I5
I3
I11
tp1173
I100
s(I7
I1
I5
tp1174
I400
s(I11
I5
I1
tp1175
I400
s(I7
I1
I11
tp1176
I300
s(I11
I1
I3
tp1177
I100
s(I7
I11
I1
tp1178
I300
s(I4
I2
I7
tp1179
I400
s(I1
I3
I7
tp1180
I100
s(I11
I5
I3
tp1181
I100
s(I5
I1
I11
tp1182
I1400
s(I7
I3
I1
tp1183
I100
s(I1
I5
I7
tp1184
I400
s(I3
I5
I7
tp1185
I100
s(I11
I7
I5
tp1186
I300
s(I7
I11
I5
tp1187
I300
s(I5
I3
I7
tp1188
I100
s(I2
I4
I11
tp1189
I400
s(I4
I7
I2
tp1190
I400
s(I11
I4
I2
tp1191
I400
s(I3
I1
I11
tp1192
I100
s(I7
I2
I4
tp1193
I400
s(I7
I5
I1
tp1194
I400
s(I11
I3
I1
tp1195
I100
s(I5
I7
I11
tp1196
I2300
s(I1
I11
I5
tp1197
I400
ssI8
(dp1198
(I6
I9
I7
tp1199
I100
s(I8
I5
I9
tp1200
I200
s(I5
I8
I2
tp1201
I100
s(I5
I6
I3
tp1202
I400
s(I10
I7
I6
tp1203
I100
s(I7
I8
I9
tp1204
I300
s(I5
I7
I9
tp1205
I200
s(I6
I3
I5
tp1206
I400
s(I8
I2
I5
tp1207
I100
s(I8
I9
I5
tp1208
I200
s(I2
I5
I8
tp1209
I100
s(I10
I7
I9
tp1210
I1200
s(I9
I10
I8
tp1211
I100
s(I5
I7
I8
tp1212
I300
s(I7
I10
I8
tp1213
I100
s(I9
I7
I6
tp1214
I100
s(I7
I10
I9
tp1215
I200
s(I7
I8
I2
tp1216
I100
s(I2
I7
I5
tp1217
I100
s(I7
I9
I8
tp1218
I300
s(I10
I7
I8
tp1219
I100
s(I8
I9
I7
tp1220
I300
s(I7
I6
I10
tp1221
I100
s(I8
I7
I5
tp1222
I300
s(I8
I2
I7
tp1223
I100
s(I6
I9
I10
tp1224
I3000
s(I5
I2
I7
tp1225
I100
s(I9
I8
I7
tp1226
I300
s(I8
I7
I2
tp1227
I100
s(I8
I7
I9
tp1228
I300
s(I9
I7
I10
tp1229
I200
s(I7
I10
I6
tp1230
I100
s(I7
I5
I9
tp1231
I200
s(I5
I9
I8
tp1232
I200
s(I10
I8
I9
tp1233
I100
s(I10
I8
I7
tp1234
I100
s(I9
I10
I6
tp1235
I500
s(I7
I5
I8
tp1236
I300
s(I10
I9
I8
tp1237
I100
s(I5
I7
I2
tp1238
I100
s(I6
I10
I11
tp1239
I2500
s(I5
I3
I6
tp1240
I400
s(I9
I5
I7
tp1241
I1200
s(I2
I7
I8
tp1242
I100
s(I6
I7
I10
tp1243
I100
s(I5
I2
I8
tp1244
I100
s(I3
I6
I5
tp1245
I400
s(I10
I9
I6
tp1246
I3000
s(I8
I10
I9
tp1247
I100
s(I6
I10
I9
tp1248
I500
s(I6
I5
I3
tp1249
I2900
s(I9
I5
I8
tp1250
I200
s(I8
I10
I7
tp1251
I100
s(I10
I9
I7
tp1252
I1200
s(I9
I8
I10
tp1253
I100
s(I5
I8
I9
tp1254
I200
s(I7
I8
I10
tp1255
I100
s(I7
I9
I6
tp1256
I100
s(I5
I9
I7
tp1257
I200
s(I6
I10
I7
tp1258
I100
s(I7
I6
I9
tp1259
I100
s(I7
I2
I8
tp1260
I100
s(I2
I5
I7
tp1261
I1100
s(I8
I9
I10
tp1262
I100
s(I2
I8
I5
tp1263
I100
s(I9
I8
I5
tp1264
I200
s(I7
I9
I10
tp1265
I200
s(I8
I7
I10
tp1266
I100
s(I9
I7
I5
tp1267
I1200
s(I8
I5
I7
tp1268
I300
s(I7
I9
I5
tp1269
I200
s(I9
I6
I7
tp1270
I100
s(I10
I6
I9
tp1271
I500
s(I7
I5
I2
tp1272
I100
s(I2
I8
I7
tp1273
I100
s(I5
I8
I7
tp1274
I300
s(I9
I10
I7
tp1275
I200
s(I6
I7
I9
tp1276
I100
s(I9
I6
I10
tp1277
I500
s(I3
I5
I6
tp1278
I400
s(I7
I8
I5
tp1279
I300
s(I10
I6
I7
tp1280
I100
s(I9
I7
I8
tp1281
I300
s(I8
I5
I2
tp1282
I100
s(I7
I2
I5
tp1283
I100
ssI9
(dp1284
(I6
I1
I8
tp1285
I100
s(I9
I10
I1
tp1286
I100
s(I10
I9
I1
tp1287
I100
s(I3
I5
I4
tp1288
I400
s(I6
I10
I1
tp1289
I100
s(I4
I3
I5
tp1290
I2900
s(I1
I10
I6
tp1291
I100
s(I8
I6
I1
tp1292
I100
s(I6
I5
I9
tp1293
I300
s(I10
I1
I6
tp1294
I100
s(I5
I3
I4
tp1295
I400
s(I9
I6
I5
tp1296
I300
s(I5
I8
I1
tp1297
I100
s(I6
I5
I8
tp1298
I100
s(I1
I6
I8
tp1299
I100
s(I6
I5
I1
tp1300
I400
s(I10
I6
I1
tp1301
I100
s(I1
I6
I9
tp1302
I400
s(I4
I9
I5
tp1303
I400
s(I8
I2
I9
tp1304
I2500
s(I9
I5
I6
tp1305
I300
s(I1
I6
I10
tp1306
I100
s(I6
I1
I10
tp1307
I100
s(I5
I6
I9
tp1308
I300
s(I6
I1
I9
tp1309
I400
s(I9
I6
I1
tp1310
I1400
s(I1
I9
I10
tp1311
I100
s(I9
I5
I4
tp1312
I400
s(I5
I9
I6
tp1313
I300
s(I10
I9
I6
tp1314
I100
s(I1
I9
I5
tp1315
I300
s(I8
I1
I5
tp1316
I100
s(I1
I6
I5
tp1317
I400
s(I1
I5
I8
tp1318
I100
s(I1
I10
I9
tp1319
I100
s(I4
I5
I3
tp1320
I400
s(I6
I10
I9
tp1321
I100
s(I4
I8
I3
tp1322
I2500
s(I6
I9
I1
tp1323
I400
s(I9
I10
I6
tp1324
I100
s(I9
I1
I5
tp1325
I300
s(I6
I9
I10
tp1326
I100
s(I1
I5
I9
tp1327
I300
s(I5
I9
I4
tp1328
I400
s(I6
I8
I1
tp1329
I100
s(I1
I9
I6
tp1330
I400
s(I9
I5
I1
tp1331
I300
s(I6
I9
I5
tp1332
I300
s(I5
I4
I3
tp1333
I400
s(I6
I1
I5
tp1334
I400
s(I1
I8
I6
tp1335
I100
s(I5
I6
I1
tp1336
I400
s(I8
I5
I6
tp1337
I100
s(I9
I1
I6
tp1338
I3400
s(I5
I1
I9
tp1339
I300
s(I5
I9
I1
tp1340
I300
s(I9
I4
I5
tp1341
I2900
s(I10
I1
I9
tp1342
I100
s(I5
I8
I6
tp1343
I100
s(I5
I1
I6
tp1344
I400
s(I10
I6
I9
tp1345
I100
s(I5
I1
I8
tp1346
I100
s(I6
I8
I5
tp1347
I100
s(I1
I5
I6
tp1348
I400
s(I4
I5
I9
tp1349
I400
s(I8
I6
I5
tp1350
I100
s(I1
I8
I5
tp1351
I100
s(I9
I6
I10
tp1352
I100
s(I8
I5
I1
tp1353
I100
s(I3
I4
I5
tp1354
I400
s(I9
I1
I10
tp1355
I100
s(I8
I1
I6
tp1356
I1100
s(I5
I6
I8
tp1357
I100
s(I5
I4
I9
tp1358
I400
ssI10
(dp1359
(I8
I2
I3
tp1360
I100
s(I3
I8
I10
tp1361
I100
s(I1
I2
I8
tp1362
I100
s(I8
I3
I10
tp1363
I100
s(I2
I9
I10
tp1364
I200
s(I3
I2
I9
tp1365
I100
s(I5
I2
I7
tp1366
I2500
s(I1
I2
I9
tp1367
I100
s(I9
I8
I2
tp1368
I800
s(I2
I5
I9
tp1369
I2900
s(I2
I8
I3
tp1370
I100
s(I10
I8
I9
tp1371
I300
s(I1
I8
I9
tp1372
I100
s(I8
I9
I1
tp1373
I100
s(I9
I10
I8
tp1374
I300
s(I2
I9
I5
tp1375
I400
s(I8
I9
I2
tp1376
I800
s(I9
I2
I1
tp1377
I100
s(I9
I3
I8
tp1378
I200
s(I9
I8
I1
tp1379
I100
s(I9
I10
I3
tp1380
I100
s(I10
I3
I9
tp1381
I100
s(I2
I9
I3
tp1382
I100
s(I10
I3
I8
tp1383
I100
s(I9
I2
I3
tp1384
I100
s(I8
I2
I9
tp1385
I800
s(I3
I10
I9
tp1386
I100
s(I2
I1
I8
tp1387
I100
s(I8
I10
I9
tp1388
I300
s(I8
I10
I3
tp1389
I100
s(I9
I3
I2
tp1390
I100
s(I2
I1
I9
tp1391
I100
s(I9
I2
I5
tp1392
I400
s(I2
I8
I9
tp1393
I800
s(I1
I9
I2
tp1394
I100
s(I3
I8
I2
tp1395
I100
s(I8
I9
I3
tp1396
I200
s(I10
I9
I8
tp1397
I300
s(I2
I9
I1
tp1398
I100
s(I8
I2
I10
tp1399
I200
s(I3
I10
I8
tp1400
I100
s(I8
I9
I10
tp1401
I300
s(I1
I8
I2
tp1402
I100
s(I9
I8
I3
tp1403
I200
s(I9
I1
I2
tp1404
I100
s(I3
I9
I10
tp1405
I100
s(I9
I2
I8
tp1406
I3800
s(I2
I8
I10
tp1407
I1200
s(I5
I2
I9
tp1408
I400
s(I9
I3
I10
tp1409
I100
s(I10
I9
I3
tp1410
I100
s(I3
I2
I8
tp1411
I100
s(I9
I8
I10
tp1412
I300
s(I10
I8
I3
tp1413
I100
s(I9
I10
I2
tp1414
I200
s(I9
I2
I10
tp1415
I200
s(I10
I8
I2
tp1416
I200
s(I2
I5
I7
tp1417
I2500
s(I2
I3
I8
tp1418
I100
s(I8
I3
I9
tp1419
I200
s(I8
I1
I2
tp1420
I100
s(I1
I9
I8
tp1421
I100
s(I9
I5
I2
tp1422
I400
s(I2
I9
I8
tp1423
I3300
s(I2
I3
I9
tp1424
I100
s(I10
I9
I2
tp1425
I200
s(I8
I1
I9
tp1426
I100
s(I2
I10
I9
tp1427
I200
s(I8
I3
I2
tp1428
I100
s(I2
I10
I8
tp1429
I200
s(I9
I1
I8
tp1430
I100
s(I8
I2
I1
tp1431
I100
s(I3
I9
I2
tp1432
I100
s(I3
I9
I8
tp1433
I1200
s(I10
I2
I9
tp1434
I200
s(I3
I8
I9
tp1435
I200
s(I5
I9
I2
tp1436
I400
s(I8
I10
I2
tp1437
I200
s(I2
I8
I1
tp1438
I100
s(I10
I2
I8
tp1439
I200
ssI11
(dp1440
(I2
I5
I9
tp1441
I200
s(I9
I5
I8
tp1442
I300
s(I8
I9
I5
tp1443
I300
s(I2
I9
I4
tp1444
I200
s(I4
I9
I2
tp1445
I1200
s(I4
I8
I5
tp1446
I300
s(I2
I9
I5
tp1447
I200
s(I4
I8
I9
tp1448
I300
s(I5
I8
I4
tp1449
I300
s(I8
I6
I2
tp1450
I2500
s(I8
I9
I4
tp1451
I300
s(I4
I5
I9
tp1452
I500
s(I8
I5
I9
tp1453
I300
s(I9
I2
I4
tp1454
I200
s(I5
I4
I2
tp1455
I200
s(I4
I2
I11
tp1456
I3300
s(I5
I9
I8
tp1457
I300
s(I2
I4
I5
tp1458
I200
s(I9
I8
I4
tp1459
I1300
s(I9
I8
I5
tp1460
I300
s(I9
I2
I5
tp1461
I200
s(I4
I5
I2
tp1462
I200
s(I2
I11
I4
tp1463
I800
s(I11
I2
I4
tp1464
I800
s(I5
I4
I8
tp1465
I300
s(I4
I11
I2
tp1466
I800
s(I5
I2
I9
tp1467
I200
s(I4
I9
I8
tp1468
I300
s(I5
I9
I4
tp1469
I500
s(I8
I5
I4
tp1470
I300
s(I9
I4
I8
tp1471
I300
s(I9
I5
I4
tp1472
I500
s(I5
I2
I4
tp1473
I200
s(I8
I4
I5
tp1474
I300
s(I9
I5
I2
tp1475
I200
s(I2
I4
I9
tp1476
I200
s(I5
I8
I9
tp1477
I300
s(I2
I5
I4
tp1478
I200
s(I4
I2
I9
tp1479
I1200
s(I9
I4
I5
tp1480
I1500
s(I4
I5
I8
tp1481
I300
s(I4
I2
I5
tp1482
I200
s(I9
I4
I2
tp1483
I200
s(I2
I4
I11
tp1484
I3300
s(I4
I9
I5
tp1485
I1500
s(I6
I9
I2
tp1486
I2500
s(I11
I4
I2
tp1487
I800
s(I8
I4
I9
tp1488
I300
s(I5
I9
I2
tp1489
I200
s(I5
I4
I9
tp1490
I500
sss.